target datalayout = "e-m:e-p270:32:32-p271:32:32-p272:64:64-i64:64-i128:128-f80:128-n8:16:32:64-S128"
target triple = "x86_64-unknown-linux-gnu"

%"class.base::internal::JSONParser" = type <{ i32, [4 x i8], ptr, ptr, ptr, i32, i32, i32, i32, i32, i32, i32, [4 x i8] }>

; Function Attrs: mustprogress nounwind uwtable
define dso_local void @_ZN4base8internal10JSONParser10NextNCharsEi(ptr noundef nonnull align 8 dereferenceable(60) %this, i32 noundef %n) #0 align 2 {
entry:
  %this.addr = alloca ptr, align 8
  %n.addr = alloca i32, align 4
  store ptr %this, ptr %this.addr, align 8
  store i32 %n, ptr %n.addr, align 4
  %this1 = load ptr, ptr %this.addr, align 8
  %0 = load i32, ptr %n.addr, align 4
  %index_ = getelementptr inbounds %"class.base::internal::JSONParser", ptr %this1, i32 0, i32 5
  %1 = load i32, ptr %index_, align 8
  %add = add nsw i32 %1, %0
  store i32 %add, ptr %index_, align 8
  %2 = load i32, ptr %n.addr, align 4
  %pos_ = getelementptr inbounds %"class.base::internal::JSONParser", ptr %this1, i32 0, i32 3
  %3 = load ptr, ptr %pos_, align 8
  %idx.ext = sext i32 %2 to i64
  %add.ptr = getelementptr inbounds i8, ptr %3, i64 %idx.ext
  store ptr %add.ptr, ptr %pos_, align 8
  ret void
}