; Function Attrs: mustprogress nofree norecurse nosync nounwind willreturn memory(argmem: readwrite) uwtable
define dso_local void @_ZN4base8internal10JSONParser10NextNCharsEi(ptr nocapture noundef nonnull align 8 dereferenceable(60) %this, i32 noundef %n) local_unnamed_addr #6 align 2 {
entry:
  %index_ = getelementptr inbounds i8, ptr %this, i64 32
  %0 = load i32, ptr %index_, align 8
  %add = add nsw i32 %0, %n
  store i32 %add, ptr %index_, align 8
  %pos_ = getelementptr inbounds i8, ptr %this, i64 16
  %1 = load ptr, ptr %pos_, align 8
  %idx.ext = sext i32 %n to i64
  %add.ptr = getelementptr inbounds i8, ptr %1, i64 %idx.ext
  store ptr %add.ptr, ptr %pos_, align 8
  ret void
}